; Function Attrs: nofree nosync nounwind memory(readwrite, inaccessiblemem: none) uwtable
define void @Llb_ManFlowLabelTfi_rec(ptr noundef readonly captures(none) %0, ptr noundef captures(none) %1) local_unnamed_addr #6 {
  %3 = getelementptr i8, ptr %0, i64 312
  %.val1221 = load i32, ptr %3, align 8, !tbaa !14
  %4 = getelementptr i8, ptr %1, i64 32
  %.val1322 = load i32, ptr %4, align 8, !tbaa !28
  %.not23 = icmp eq i32 %.val1322, %.val1221
  br i1 %.not23, label %._crit_edge, label %.lr.ph

.lr.ph:                                           ; preds = %2, %tailrecurse
  %5 = phi ptr [ %16, %tailrecurse ], [ %4, %2 ]
  %.val1225 = phi i32 [ %.val12, %tailrecurse ], [ %.val1221, %2 ]
  %.tr2024 = phi ptr [ %15, %tailrecurse ], [ %1, %2 ]
  store i32 %.val1225, ptr %5, align 8, !tbaa !28
  %6 = getelementptr i8, ptr %.tr2024, i64 24
  %.val16 = load i64, ptr %6, align 8
  %7 = and i64 %.val16, 7
  %.off = add nsw i64 %7, -1
  %switch = icmp ult i64 %.off, 2
  br i1 %switch, label %._crit_edge, label %tailrecurse

tailrecurse:                                      ; preds = %.lr.ph
  %8 = getelementptr i8, ptr %.tr2024, i64 8
  %.val14 = load ptr, ptr %8, align 8, !tbaa !31
  %9 = ptrtoint ptr %.val14 to i64
  %10 = and i64 %9, -2
  %11 = inttoptr i64 %10 to ptr
  tail call void @Llb_ManFlowLabelTfi_rec(ptr noundef nonnull %0, ptr noundef %11)
  %12 = getelementptr i8, ptr %.tr2024, i64 16
  %.val15 = load ptr, ptr %12, align 8, !tbaa !32
  %13 = ptrtoint ptr %.val15 to i64
  %14 = and i64 %13, -2
  %15 = inttoptr i64 %14 to ptr
  %.val12 = load i32, ptr %3, align 8, !tbaa !14
  %16 = getelementptr i8, ptr %15, i64 32
  %.val13 = load i32, ptr %16, align 8, !tbaa !28
  %.not = icmp eq i32 %.val13, %.val12
  br i1 %.not, label %._crit_edge, label %.lr.ph

._crit_edge:                                      ; preds = %tailrecurse, %.lr.ph, %2
  ret void
}